target datalayout = "e-m:e-p270:32:32-p271:32:32-p272:64:64-i64:64-i128:128-f80:128-n8:16:32:64-S128"
target triple = "x86_64-unknown-linux-gnu"

; Function Attrs: mustprogress nounwind uwtable
define dso_local noundef ptr @_ZN10btSoftBody9getSolverENS_8ePSolver1_E(i32 noundef %solver) #1 align 2 {
entry:
  %retval = alloca ptr, align 8
  %solver.addr = alloca i32, align 4
  store i32 %solver, ptr %solver.addr, align 4
  %0 = load i32, ptr %solver.addr, align 4
  switch i32 %0, label %sw.default [
    i32 1, label %sw.bb
    i32 0, label %sw.bb1
    i32 2, label %sw.bb2
    i32 3, label %sw.bb3
  ]

sw.bb:                                            ; preds = %entry
  store ptr @_ZN10btSoftBody14PSolve_AnchorsEPS_ff, ptr %retval, align 8
  br label %return

sw.bb1:                                           ; preds = %entry
  store ptr @_ZN10btSoftBody12PSolve_LinksEPS_ff, ptr %retval, align 8
  br label %return

sw.bb2:                                           ; preds = %entry
  store ptr @_ZN10btSoftBody16PSolve_RContactsEPS_ff, ptr %retval, align 8
  br label %return

sw.bb3:                                           ; preds = %entry
  store ptr @_ZN10btSoftBody16PSolve_SContactsEPS_ff, ptr %retval, align 8
  br label %return

sw.default:                                       ; preds = %entry
  br label %sw.epilog

sw.epilog:                                        ; preds = %sw.default
  store ptr null, ptr %retval, align 8
  br label %return

return:                                           ; preds = %sw.epilog, %sw.bb3, %sw.bb2, %sw.bb1, %sw.bb
  %1 = load ptr, ptr %retval, align 8
  ret ptr %1
}