; Function Attrs: mustprogress nofree norecurse nosync nounwind willreturn memory(none) uwtable
define dso_local noundef ptr @_ZN10btSoftBody9getSolverENS_8ePSolver1_E(i32 noundef %solver) local_unnamed_addr #25 align 2 {
entry:
  %0 = icmp ult i32 %solver, 4
  br i1 %0, label %switch.lookup, label %return

switch.lookup:                                    ; preds = %entry
  %1 = zext nneg i32 %solver to i64
  %switch.gep = getelementptr inbounds [4 x ptr], ptr @switch.table._ZN10btSoftBody11staticSolveEi, i64 0, i64 %1
  %switch.load = load ptr, ptr %switch.gep, align 8
  br label %return

return:                                           ; preds = %entry, %switch.lookup
  %retval.0 = phi ptr [ %switch.load, %switch.lookup ], [ null, %entry ]
  ret ptr %retval.0
}